target datalayout = "e-m:e-p270:32:32-p271:32:32-p272:64:64-i64:64-i128:128-f80:128-n8:16:32:64-S128"
target triple = "x86_64-pc-linux-gnu"

%"class.std::__cxx11::basic_string" = type { %"struct.std::__cxx11::basic_string<char>::_Alloc_hider", i64, %union.anon }
%"struct.std::__cxx11::basic_string<char>::_Alloc_hider" = type { ptr }
%union.anon = type { i64, [8 x i8] }
%"class.tinygltf::Value" = type <{ i32, i32, double, %"class.std::__cxx11::basic_string", %"class.std::vector", %"class.std::vector.3", %"class.std::map", i8, [7 x i8] }>
%"class.std::vector" = type { %"struct.std::_Vector_base" }
%"struct.std::_Vector_base" = type { %"struct.std::_Vector_base<unsigned char, std::allocator<unsigned char>>::_Vector_impl" }
%"struct.std::_Vector_base<unsigned char, std::allocator<unsigned char>>::_Vector_impl" = type { %"struct.std::_Vector_base<unsigned char, std::allocator<unsigned char>>::_Vector_impl_data" }
%"struct.std::_Vector_base<unsigned char, std::allocator<unsigned char>>::_Vector_impl_data" = type { ptr, ptr, ptr }
%"class.std::vector.3" = type { %"struct.std::_Vector_base.4" }
%"struct.std::_Vector_base.4" = type { %"struct.std::_Vector_base<tinygltf::Value, std::allocator<tinygltf::Value>>::_Vector_impl" }
%"struct.std::_Vector_base<tinygltf::Value, std::allocator<tinygltf::Value>>::_Vector_impl" = type { %"struct.std::_Vector_base<tinygltf::Value, std::allocator<tinygltf::Value>>::_Vector_impl_data" }
%"struct.std::_Vector_base<tinygltf::Value, std::allocator<tinygltf::Value>>::_Vector_impl_data" = type { ptr, ptr, ptr }
%"class.std::map" = type { %"class.std::_Rb_tree" }
%"class.std::_Rb_tree" = type { %"struct.std::_Rb_tree<std::__cxx11::basic_string<char>, std::pair<const std::__cxx11::basic_string<char>, tinygltf::Value>, std::_Select1st<std::pair<const std::__cxx11::basic_string<char>, tinygltf::Value>>, std::less<std::__cxx11::basic_string<char>>>::_Rb_tree_impl" }
%"struct.std::_Rb_tree<std::__cxx11::basic_string<char>, std::pair<const std::__cxx11::basic_string<char>, tinygltf::Value>, std::_Select1st<std::pair<const std::__cxx11::basic_string<char>, tinygltf::Value>>, std::less<std::__cxx11::basic_string<char>>>::_Rb_tree_impl" = type { %"struct.std::_Rb_tree_key_compare", %"struct.std::_Rb_tree_header" }
%"struct.std::_Rb_tree_key_compare" = type { %"struct.std::less" }
%"struct.std::less" = type { i8 }
%"struct.std::_Rb_tree_header" = type { %"struct.std::_Rb_tree_node_base", i64 }
%"struct.std::_Rb_tree_node_base" = type { i32, ptr, ptr, ptr }
%"struct.tinygltf::BufferView" = type <{ %"class.std::__cxx11::basic_string", i32, [4 x i8], i64, i64, i64, i32, [4 x i8], %"class.tinygltf::Value", i8, [7 x i8] }>

; Function Attrs: noreturn nounwind uwtable
define linkonce_odr hidden void @__clang_call_terminate(ptr noundef %0) #9 comdat {
  %2 = call ptr @__cxa_begin_catch(ptr %0) #3
  call void @_ZSt9terminatev() #24
  unreachable
}

; Function Attrs: mustprogress nounwind uwtable
define linkonce_odr dso_local noundef i32 @_ZNSt11char_traitsIcE7compareEPKcS2_m(ptr noundef %0, ptr noundef %1, i64 noundef %2) #5 comdat align 2 {
  %4 = alloca i32, align 4
  %5 = alloca ptr, align 8
  %6 = alloca ptr, align 8
  %7 = alloca i64, align 8
  store ptr %0, ptr %5, align 8
  store ptr %1, ptr %6, align 8
  store i64 %2, ptr %7, align 8
  %8 = load i64, ptr %7, align 8
  %9 = icmp eq i64 %8, 0
  br i1 %9, label %10, label %11

10:                                               ; preds = %3
  store i32 0, ptr %4, align 4
  br label %16

11:                                               ; preds = %3
  %12 = load ptr, ptr %5, align 8
  %13 = load ptr, ptr %6, align 8
  %14 = load i64, ptr %7, align 8
  %15 = call i32 @memcmp(ptr noundef %12, ptr noundef %13, i64 noundef %14) #3
  store i32 %15, ptr %4, align 4
  br label %16

16:                                               ; preds = %11, %10
  %17 = load i32, ptr %4, align 4
  ret i32 %17
}

; Function Attrs: mustprogress uwtable
define dso_local noundef zeroext i1 @_ZNK8tinygltf5ValueeqERKS0_(ptr noundef nonnull align 8 dereferenceable(145) %0, ptr noundef nonnull align 8 dereferenceable(145) %1) #4 align 2 {
  %3 = alloca ptr, align 8
  %4 = alloca ptr, align 8
  store ptr %0, ptr %3, align 8
  store ptr %1, ptr %4, align 8
  %5 = load ptr, ptr %3, align 8
  %6 = load ptr, ptr %4, align 8
  %7 = call noundef zeroext i1 @_ZN8tinygltfL6EqualsERKNS_5ValueES2_(ptr noundef nonnull align 8 dereferenceable(145) %5, ptr noundef nonnull align 8 dereferenceable(145) %6)
  ret i1 %7
}

; Function Attrs: mustprogress nounwind uwtable
define linkonce_odr dso_local noundef zeroext i1 @_ZSteqIcEN9__gnu_cxx11__enable_ifIXsr9__is_charIT_EE7__valueEbE6__typeERKNSt7__cxx1112basic_stringIS2_St11char_traitsIS2_ESaIS2_EEESC_(ptr noundef nonnull align 8 dereferenceable(32) %0, ptr noundef nonnull align 8 dereferenceable(32) %1) #5 comdat personality ptr @__gxx_personality_v0 {
  %3 = alloca ptr, align 8
  %4 = alloca ptr, align 8
  store ptr %0, ptr %3, align 8
  store ptr %1, ptr %4, align 8
  %5 = load ptr, ptr %3, align 8
  %6 = call noundef i64 @_ZNKSt7__cxx1112basic_stringIcSt11char_traitsIcESaIcEE4sizeEv(ptr noundef nonnull align 8 dereferenceable(32) %5) #3
  %7 = load ptr, ptr %4, align 8
  %8 = call noundef i64 @_ZNKSt7__cxx1112basic_stringIcSt11char_traitsIcESaIcEE4sizeEv(ptr noundef nonnull align 8 dereferenceable(32) %7) #3
  %9 = icmp eq i64 %6, %8
  br i1 %9, label %10, label %21

10:                                               ; preds = %2
  %11 = load ptr, ptr %3, align 8
  %12 = call noundef ptr @_ZNKSt7__cxx1112basic_stringIcSt11char_traitsIcESaIcEE4dataEv(ptr noundef nonnull align 8 dereferenceable(32) %11) #3
  %13 = load ptr, ptr %4, align 8
  %14 = call noundef ptr @_ZNKSt7__cxx1112basic_stringIcSt11char_traitsIcESaIcEE4dataEv(ptr noundef nonnull align 8 dereferenceable(32) %13) #3
  %15 = load ptr, ptr %3, align 8
  %16 = call noundef i64 @_ZNKSt7__cxx1112basic_stringIcSt11char_traitsIcESaIcEE4sizeEv(ptr noundef nonnull align 8 dereferenceable(32) %15) #3
  %17 = invoke noundef i32 @_ZNSt11char_traitsIcE7compareEPKcS2_m(ptr noundef %12, ptr noundef %14, i64 noundef %16)
          to label %18 unwind label %23

18:                                               ; preds = %10
  %19 = icmp ne i32 %17, 0
  %20 = xor i1 %19, true
  br label %21

21:                                               ; preds = %18, %2
  %22 = phi i1 [ false, %2 ], [ %20, %18 ]
  ret i1 %22

23:                                               ; preds = %10
  %24 = landingpad { ptr, i32 }
          catch ptr null
  %25 = extractvalue { ptr, i32 } %24, 0
  call void @__clang_call_terminate(ptr %25) #24
  unreachable
}

; Function Attrs: mustprogress uwtable
define dso_local noundef zeroext i1 @_ZNK8tinygltf10BufferVieweqERKS0_(ptr noundef nonnull align 8 dereferenceable(225) %0, ptr noundef nonnull align 8 dereferenceable(225) %1) #4 align 2 {
  %3 = alloca ptr, align 8
  %4 = alloca ptr, align 8
  store ptr %0, ptr %3, align 8
  store ptr %1, ptr %4, align 8
  %5 = load ptr, ptr %3, align 8
  %6 = getelementptr inbounds %"struct.tinygltf::BufferView", ptr %5, i32 0, i32 1
  %7 = load i32, ptr %6, align 8
  %8 = load ptr, ptr %4, align 8
  %9 = getelementptr inbounds %"struct.tinygltf::BufferView", ptr %8, i32 0, i32 1
  %10 = load i32, ptr %9, align 8
  %11 = icmp eq i32 %7, %10
  br i1 %11, label %12, label %61

12:                                               ; preds = %2
  %13 = getelementptr inbounds %"struct.tinygltf::BufferView", ptr %5, i32 0, i32 4
  %14 = load i64, ptr %13, align 8
  %15 = load ptr, ptr %4, align 8
  %16 = getelementptr inbounds %"struct.tinygltf::BufferView", ptr %15, i32 0, i32 4
  %17 = load i64, ptr %16, align 8
  %18 = icmp eq i64 %14, %17
  br i1 %18, label %19, label %61

19:                                               ; preds = %12
  %20 = getelementptr inbounds %"struct.tinygltf::BufferView", ptr %5, i32 0, i32 3
  %21 = load i64, ptr %20, align 8
  %22 = load ptr, ptr %4, align 8
  %23 = getelementptr inbounds %"struct.tinygltf::BufferView", ptr %22, i32 0, i32 3
  %24 = load i64, ptr %23, align 8
  %25 = icmp eq i64 %21, %24
  br i1 %25, label %26, label %61

26:                                               ; preds = %19
  %27 = getelementptr inbounds %"struct.tinygltf::BufferView", ptr %5, i32 0, i32 5
  %28 = load i64, ptr %27, align 8
  %29 = load ptr, ptr %4, align 8
  %30 = getelementptr inbounds %"struct.tinygltf::BufferView", ptr %29, i32 0, i32 5
  %31 = load i64, ptr %30, align 8
  %32 = icmp eq i64 %28, %31
  br i1 %32, label %33, label %61

33:                                               ; preds = %26
  %34 = getelementptr inbounds %"struct.tinygltf::BufferView", ptr %5, i32 0, i32 0
  %35 = load ptr, ptr %4, align 8
  %36 = getelementptr inbounds %"struct.tinygltf::BufferView", ptr %35, i32 0, i32 0
  %37 = call noundef zeroext i1 @_ZSteqIcEN9__gnu_cxx11__enable_ifIXsr9__is_charIT_EE7__valueEbE6__typeERKNSt7__cxx1112basic_stringIS2_St11char_traitsIS2_ESaIS2_EEESC_(ptr noundef nonnull align 8 dereferenceable(32) %34, ptr noundef nonnull align 8 dereferenceable(32) %36) #3
  br i1 %37, label %38, label %61

38:                                               ; preds = %33
  %39 = getelementptr inbounds %"struct.tinygltf::BufferView", ptr %5, i32 0, i32 6
  %40 = load i32, ptr %39, align 8
  %41 = load ptr, ptr %4, align 8
  %42 = getelementptr inbounds %"struct.tinygltf::BufferView", ptr %41, i32 0, i32 6
  %43 = load i32, ptr %42, align 8
  %44 = icmp eq i32 %40, %43
  br i1 %44, label %45, label %61

45:                                               ; preds = %38
  %46 = getelementptr inbounds %"struct.tinygltf::BufferView", ptr %5, i32 0, i32 8
  %47 = load ptr, ptr %4, align 8
  %48 = getelementptr inbounds %"struct.tinygltf::BufferView", ptr %47, i32 0, i32 8
  %49 = call noundef zeroext i1 @_ZNK8tinygltf5ValueeqERKS0_(ptr noundef nonnull align 8 dereferenceable(145) %46, ptr noundef nonnull align 8 dereferenceable(145) %48)
  br i1 %49, label %50, label %61

50:                                               ; preds = %45
  %51 = getelementptr inbounds %"struct.tinygltf::BufferView", ptr %5, i32 0, i32 9
  %52 = load i8, ptr %51, align 8
  %53 = trunc i8 %52 to i1
  %54 = zext i1 %53 to i32
  %55 = load ptr, ptr %4, align 8
  %56 = getelementptr inbounds %"struct.tinygltf::BufferView", ptr %55, i32 0, i32 9
  %57 = load i8, ptr %56, align 8
  %58 = trunc i8 %57 to i1
  %59 = zext i1 %58 to i32
  %60 = icmp eq i32 %54, %59
  br label %61

61:                                               ; preds = %50, %45, %38, %33, %26, %19, %12, %2
  %62 = phi i1 [ false, %45 ], [ false, %38 ], [ false, %33 ], [ false, %26 ], [ false, %19 ], [ false, %12 ], [ false, %2 ], [ %60, %50 ]
  ret i1 %62
}